; Function Attrs: nounwind uwtable
define i32 @IDASStolerancesB(ptr noundef %0, i32 noundef %1, double noundef %2, double noundef %3) local_unnamed_addr #0 {
  %5 = icmp eq ptr %0, null
  br i1 %5, label %6, label %7

6:                                                ; preds = %4
  tail call void (ptr, i32, i32, ptr, ptr, ptr, ...) @IDAProcessError(ptr noundef null, i32 noundef -20, i32 noundef 990, ptr noundef nonnull @__func__.IDASStolerancesB, ptr noundef nonnull @.str, ptr noundef nonnull @.str.1) #9
  br label %26

7:                                                ; preds = %4
  %8 = getelementptr inbounds nuw i8, ptr %0, i64 2120
  %9 = load i32, ptr %8, align 8, !tbaa !46
  %10 = icmp eq i32 %9, 0
  br i1 %10, label %11, label %12

11:                                               ; preds = %7
  tail call void (ptr, i32, i32, ptr, ptr, ptr, ...) @IDAProcessError(ptr noundef nonnull %0, i32 noundef -101, i32 noundef 999, ptr noundef nonnull @__func__.IDASStolerancesB, ptr noundef nonnull @.str, ptr noundef nonnull @.str.5) #9
  br label %26

12:                                               ; preds = %7
  %13 = getelementptr inbounds nuw i8, ptr %0, i64 2112
  %14 = load ptr, ptr %13, align 8, !tbaa !3
  %15 = getelementptr inbounds nuw i8, ptr %14, i64 56
  %16 = load i32, ptr %15, align 8, !tbaa !40
  %.not = icmp slt i32 %1, %16
  br i1 %.not, label %18, label %17

17:                                               ; preds = %12
  tail call void (ptr, i32, i32, ptr, ptr, ptr, ...) @IDAProcessError(ptr noundef nonnull %0, i32 noundef -22, i32 noundef 1008, ptr noundef nonnull @__func__.IDASStolerancesB, ptr noundef nonnull @.str, ptr noundef nonnull @.str.12) #9
  br label %26

18:                                               ; preds = %12
  %19 = getelementptr inbounds nuw i8, ptr %14, i64 48
  br label %.lr.ph

.lr.ph:                                           ; preds = %.lr.ph, %18
  %.017.sink.in = phi ptr [ %22, %.lr.ph ], [ %19, %18 ]
  %.017.sink = load ptr, ptr %.017.sink.in, align 8, !tbaa !88, !nonnull !144, !noundef !144
  %20 = load i32, ptr %.017.sink, align 8, !tbaa !143
  %21 = icmp eq i32 %1, %20
  %22 = getelementptr inbounds nuw i8, ptr %.017.sink, i64 128
  br i1 %21, label %._crit_edge, label %.lr.ph

._crit_edge:                                      ; preds = %.lr.ph
  %23 = getelementptr inbounds nuw i8, ptr %.017.sink, i64 16
  %24 = load ptr, ptr %23, align 8, !tbaa !89
  %25 = tail call i32 @IDASStolerances(ptr noundef %24, double noundef %2, double noundef %3) #9
  br label %26

26:                                               ; preds = %._crit_edge, %17, %11, %6
  %.0 = phi i32 [ -20, %6 ], [ -101, %11 ], [ -22, %17 ], [ %25, %._crit_edge ]
  ret i32 %.0
}